target datalayout = "e-m:e-p270:32:32-p271:32:32-p272:64:64-i64:64-i128:128-f80:128-n8:16:32:64-S128"
target triple = "x86_64-pc-linux-gnu"

%struct.Vec_Int_t_ = type { i32, i32, ptr }
%struct.Mf_Man_t_ = type { ptr, ptr, ptr, ptr, %struct.Vec_Ptr_t_, ptr, %struct.Vec_Int_t_, %struct.Vec_Int_t_, %struct.Vec_Int_t_, i32, i32, i32, i64, [4 x double], [11 x i32] }
%struct.Vec_Ptr_t_ = type { i32, i32, ptr }
%struct.Gia_Man_t_ = type { ptr, ptr, i32, i32, i32, i32, ptr, ptr, i32, i32, i32, ptr, ptr, %struct.Vec_Int_t_, %struct.Vec_Int_t_, i32, i32, i32, %struct.Vec_Int_t_, ptr, ptr, ptr, i32, i32, i32, i32, ptr, ptr, ptr, ptr, ptr, i32, i32, ptr, i32, ptr, ptr, ptr, ptr, ptr, ptr, ptr, ptr, ptr, ptr, ptr, ptr, ptr, ptr, ptr, ptr, ptr, ptr, %struct.Vec_Int_t_, %struct.Vec_Int_t_, ptr, ptr, ptr, ptr, ptr, ptr, ptr, ptr, ptr, ptr, ptr, ptr, ptr, ptr, ptr, ptr, ptr, ptr, ptr, ptr, ptr, i32, float, float, ptr, ptr, i32, ptr, ptr, ptr, ptr, ptr, ptr, ptr, ptr, ptr, ptr, ptr, ptr, ptr, ptr, ptr, i64, i64, ptr, ptr, i32, i32, i32, i32, i32, i32, i32, i32, i32, i32, i32, i32, ptr, ptr, ptr, ptr, ptr, ptr, ptr, ptr, i32, i32, i32, ptr, i32, i32, ptr, ptr, ptr, ptr, ptr, ptr, i32, i32, ptr, %struct.Vec_Int_t_, %struct.Vec_Int_t_, %struct.Vec_Int_t_, ptr, ptr, ptr, i32, i32, i32, i32, ptr, ptr, ptr, ptr, ptr }
%struct.Gia_Obj_t_ = type <{ i64, i32 }>

@.str.38 = private unnamed_addr constant [6 x i8] c"Ela  \00", align 1
@.str.39 = private unnamed_addr constant [6 x i8] c"Area \00", align 1
@.str.40 = private unnamed_addr constant [6 x i8] c"Delay\00", align 1

; Function Attrs: inlinehint nounwind uwtable
define internal i32 @Gia_ObjIsAnd(ptr noundef %0) #2 {
  %2 = alloca ptr, align 8
  store ptr %0, ptr %2, align 8, !tbaa !74
  %3 = load ptr, ptr %2, align 8, !tbaa !74
  %4 = load i64, ptr %3, align 4
  %5 = lshr i64 %4, 31
  %6 = and i64 %5, 1
  %7 = trunc i64 %6 to i32
  %8 = icmp ne i32 %7, 0
  br i1 %8, label %15, label %9

9:                                                ; preds = %1
  %10 = load ptr, ptr %2, align 8, !tbaa !74
  %11 = load i64, ptr %10, align 4
  %12 = and i64 %11, 536870911
  %13 = trunc i64 %12 to i32
  %14 = icmp ne i32 %13, 536870911
  br label %15

15:                                               ; preds = %9, %1
  %16 = phi i1 [ false, %1 ], [ %14, %9 ]
  %17 = zext i1 %16 to i32
  ret i32 %17
}

; Function Attrs: inlinehint nounwind uwtable
define internal ptr @Gia_ManObj(ptr noundef %0, i32 noundef %1) #2 {
  %3 = alloca ptr, align 8
  %4 = alloca i32, align 4
  store ptr %0, ptr %3, align 8, !tbaa !75
  store i32 %1, ptr %4, align 4, !tbaa !8
  %5 = load ptr, ptr %3, align 8, !tbaa !75
  %6 = getelementptr inbounds nuw %struct.Gia_Man_t_, ptr %5, i32 0, i32 6
  %7 = load ptr, ptr %6, align 8, !tbaa !76
  %8 = load i32, ptr %4, align 4, !tbaa !8
  %9 = sext i32 %8 to i64
  %10 = getelementptr inbounds %struct.Gia_Obj_t_, ptr %7, i64 %9
  ret ptr %10
}

; Function Attrs: nounwind uwtable
define void @Mf_ManComputeCuts(ptr noundef %0) #0 {
  %2 = alloca ptr, align 8
  %3 = alloca i32, align 4
  store ptr %0, ptr %2, align 8, !tbaa !43
  call void @llvm.lifetime.start.p0(i64 4, ptr %3) #14
  store i32 0, ptr %3, align 4, !tbaa !8
  br label %4

4:                                                ; preds = %25, %1
  %5 = load i32, ptr %3, align 4, !tbaa !8
  %6 = load ptr, ptr %2, align 8, !tbaa !43
  %7 = getelementptr inbounds nuw %struct.Mf_Man_t_, ptr %6, i32 0, i32 1
  %8 = load ptr, ptr %7, align 8, !tbaa !45
  %9 = getelementptr inbounds nuw %struct.Gia_Man_t_, ptr %8, i32 0, i32 4
  %10 = load i32, ptr %9, align 8, !tbaa !51
  %11 = icmp slt i32 %5, %10
  br i1 %11, label %12, label %28

12:                                               ; preds = %4
  %13 = load ptr, ptr %2, align 8, !tbaa !43
  %14 = getelementptr inbounds nuw %struct.Mf_Man_t_, ptr %13, i32 0, i32 1
  %15 = load ptr, ptr %14, align 8, !tbaa !45
  %16 = load i32, ptr %3, align 4, !tbaa !8
  %17 = call ptr @Gia_ManObj(ptr noundef %15, i32 noundef %16)
  %18 = call i32 @Gia_ObjIsAnd(ptr noundef %17)
  %19 = icmp ne i32 %18, 0
  br i1 %19, label %21, label %20

20:                                               ; preds = %12
  br label %24

21:                                               ; preds = %12
  %22 = load ptr, ptr %2, align 8, !tbaa !43
  %23 = load i32, ptr %3, align 4, !tbaa !8
  call void @Mf_ObjMergeOrder(ptr noundef %22, i32 noundef %23)
  br label %24

24:                                               ; preds = %21, %20
  br label %25

25:                                               ; preds = %24
  %26 = load i32, ptr %3, align 4, !tbaa !8
  %27 = add nsw i32 %26, 1
  store i32 %27, ptr %3, align 4, !tbaa !8
  br label %4, !llvm.loop !246

28:                                               ; preds = %4
  %29 = load ptr, ptr %2, align 8, !tbaa !43
  %30 = call i32 @Mf_ManSetMapRefs(ptr noundef %29)
  %31 = load ptr, ptr %2, align 8, !tbaa !43
  %32 = load ptr, ptr %2, align 8, !tbaa !43
  %33 = getelementptr inbounds nuw %struct.Mf_Man_t_, ptr %32, i32 0, i32 11
  %34 = load i32, ptr %33, align 8, !tbaa !177
  %35 = icmp ne i32 %34, 0
  br i1 %35, label %36, label %37

36:                                               ; preds = %28
  br label %43

37:                                               ; preds = %28
  %38 = load ptr, ptr %2, align 8, !tbaa !43
  %39 = getelementptr inbounds nuw %struct.Mf_Man_t_, ptr %38, i32 0, i32 10
  %40 = load i32, ptr %39, align 4, !tbaa !172
  %41 = icmp ne i32 %40, 0
  %42 = select i1 %41, ptr @.str.39, ptr @.str.40
  br label %43

43:                                               ; preds = %37, %36
  %44 = phi ptr [ @.str.38, %36 ], [ %42, %37 ]
  call void @Mf_ManPrintStats(ptr noundef %31, ptr noundef %44)
  call void @llvm.lifetime.end.p0(i64 4, ptr %3) #14
  ret void
}