; Function Attrs: nounwind uwtable
define void @Mf_ManComputeCuts(ptr noundef %0) local_unnamed_addr #0 {
  %2 = getelementptr inbounds nuw i8, ptr %0, i64 8
  %3 = load ptr, ptr %2, align 8, !tbaa !56
  %4 = getelementptr inbounds nuw i8, ptr %3, i64 24
  %5 = load i32, ptr %4, align 8, !tbaa !62
  %6 = icmp sgt i32 %5, 0
  br i1 %6, label %.lr.ph, label %._crit_edge

.lr.ph:                                           ; preds = %1, %15
  %7 = phi ptr [ %16, %15 ], [ %3, %1 ]
  %indvars.iv = phi i64 [ %indvars.iv.next, %15 ], [ 0, %1 ]
  %8 = getelementptr i8, ptr %7, i64 32
  %.val = load ptr, ptr %8, align 8, !tbaa !78
  %9 = getelementptr inbounds nuw %struct.Gia_Obj_t_, ptr %.val, i64 %indvars.iv
  %.val12 = load i64, ptr %9, align 4
  %10 = and i64 %.val12, 2147483648
  %.not.i = icmp ne i64 %10, 0
  %11 = and i64 %.val12, 536870911
  %12 = icmp eq i64 %11, 536870911
  %narrow.i.not = or i1 %.not.i, %12
  br i1 %narrow.i.not, label %15, label %13

13:                                               ; preds = %.lr.ph
  %14 = trunc nuw nsw i64 %indvars.iv to i32
  tail call void @Mf_ObjMergeOrder(ptr noundef nonnull %0, i32 noundef %14)
  %.pre = load ptr, ptr %2, align 8, !tbaa !56
  br label %15

15:                                               ; preds = %13, %.lr.ph
  %16 = phi ptr [ %.pre, %13 ], [ %7, %.lr.ph ]
  %indvars.iv.next = add nuw nsw i64 %indvars.iv, 1
  %17 = getelementptr inbounds nuw i8, ptr %16, i64 24
  %18 = load i32, ptr %17, align 8, !tbaa !62
  %19 = sext i32 %18 to i64
  %20 = icmp slt i64 %indvars.iv.next, %19
  br i1 %20, label %.lr.ph, label %._crit_edge, !llvm.loop !270

._crit_edge:                                      ; preds = %15, %1
  %21 = tail call i32 @Mf_ManSetMapRefs(ptr noundef nonnull %0)
  %22 = getelementptr inbounds nuw i8, ptr %0, i64 112
  %23 = load i32, ptr %22, align 8, !tbaa !209
  %.not = icmp eq i32 %23, 0
  br i1 %.not, label %24, label %28

24:                                               ; preds = %._crit_edge
  %25 = getelementptr inbounds nuw i8, ptr %0, i64 108
  %26 = load i32, ptr %25, align 4, !tbaa !204
  %.not10 = icmp eq i32 %26, 0
  %27 = select i1 %.not10, ptr @.str.40, ptr @.str.39
  br label %28

28:                                               ; preds = %._crit_edge, %24
  %29 = phi ptr [ %27, %24 ], [ @.str.38, %._crit_edge ]
  tail call void @Mf_ManPrintStats(ptr noundef nonnull %0, ptr noundef nonnull %29)
  ret void
}